target datalayout = "e-m:e-p270:32:32-p271:32:32-p272:64:64-i64:64-i128:128-f80:128-n8:16:32:64-S128"
target triple = "x86_64-pc-linux-gnu"

%struct.tMPI_Atomic = type { i32, [60 x i8] }
%struct.tmpi_comm_ = type { %struct.tmpi_group_, %struct.tMPI_Barrier_t, ptr, ptr, i32, ptr, ptr, ptr, ptr, %struct.tMPI_Thread_mutex_t, %struct.tMPI_Thread_cond_t, %struct.tMPI_Thread_cond_t, ptr, ptr, ptr, ptr, ptr, ptr, %struct.tMPI_Atomic }
%struct.tmpi_group_ = type { i32, ptr }
%struct.tMPI_Barrier_t = type { %struct.tMPI_Atomic, i32, %struct.tMPI_Atomic }
%struct.tMPI_Thread_mutex_t = type { %struct.tMPI_Atomic, ptr }
%struct.tMPI_Thread_cond_t = type { %struct.tMPI_Atomic, ptr }

; Function Attrs: inlinehint mustprogress nounwind uwtable
define internal noundef i32 @_ZL21tMPI_Atomic_fetch_addP11tMPI_Atomici(ptr noundef %0, i32 noundef %1) #5 {
  %3 = alloca ptr, align 8
  %4 = alloca i32, align 4
  store ptr %0, ptr %3, align 8, !tbaa !65
  store volatile i32 %1, ptr %4, align 4, !tbaa !30
  %5 = load ptr, ptr %3, align 8, !tbaa !65
  %6 = getelementptr inbounds nuw %struct.tMPI_Atomic, ptr %5, i32 0, i32 0
  %7 = load volatile i32, ptr %4, align 4, !tbaa !30
  %8 = atomicrmw add ptr %6, i32 %7 seq_cst, align 4
  ret i32 %8
}

; Function Attrs: mustprogress uwtable
define noundef i32 @_Z14tMPI_Comm_freePP10tmpi_comm_(ptr noundef %0) #1 {
  %2 = alloca i32, align 4
  %3 = alloca ptr, align 8
  %4 = alloca i32, align 4
  %5 = alloca i32, align 4
  %6 = alloca i32, align 4
  %7 = alloca i32, align 4
  store ptr %0, ptr %3, align 8, !tbaa !37
  call void @llvm.lifetime.start.p0(i64 4, ptr %4) #8
  call void @llvm.lifetime.start.p0(i64 4, ptr %5) #8
  call void @llvm.lifetime.start.p0(i64 4, ptr %6) #8
  %8 = load ptr, ptr %3, align 8, !tbaa !37
  %9 = load ptr, ptr %8, align 8, !tbaa !3
  %10 = icmp ne ptr %9, null
  br i1 %10, label %12, label %11

11:                                               ; preds = %1
  store i32 0, ptr %2, align 4
  store i32 1, ptr %7, align 4
  br label %36

12:                                               ; preds = %1
  %13 = load ptr, ptr %3, align 8, !tbaa !37
  %14 = load ptr, ptr %13, align 8, !tbaa !3
  %15 = getelementptr inbounds nuw %struct.tmpi_comm_, ptr %14, i32 0, i32 0
  %16 = getelementptr inbounds nuw %struct.tmpi_group_, ptr %15, i32 0, i32 0
  %17 = load i32, ptr %16, align 8, !tbaa !8
  store i32 %17, ptr %4, align 4, !tbaa !30
  %18 = load ptr, ptr %3, align 8, !tbaa !37
  %19 = load ptr, ptr %18, align 8, !tbaa !3
  %20 = getelementptr inbounds nuw %struct.tmpi_comm_, ptr %19, i32 0, i32 18
  %21 = call noundef i32 @_ZL21tMPI_Atomic_fetch_addP11tMPI_Atomici(ptr noundef %20, i32 noundef 1)
  %22 = add nsw i32 %21, 1
  store i32 %22, ptr %5, align 4, !tbaa !30
  %23 = load i32, ptr %5, align 4, !tbaa !30
  %24 = load i32, ptr %4, align 4, !tbaa !30
  %25 = icmp eq i32 %23, %24
  br i1 %25, label %26, label %35

26:                                               ; preds = %12
  %27 = load ptr, ptr %3, align 8, !tbaa !37
  %28 = load ptr, ptr %27, align 8, !tbaa !3
  %29 = call noundef i32 @_Z17tMPI_Comm_destroyP10tmpi_comm_i(ptr noundef %28, i32 noundef 1)
  store i32 %29, ptr %6, align 4, !tbaa !30
  %30 = load i32, ptr %6, align 4, !tbaa !30
  %31 = icmp ne i32 %30, 0
  br i1 %31, label %32, label %34

32:                                               ; preds = %26
  %33 = load i32, ptr %6, align 4, !tbaa !30
  store i32 %33, ptr %2, align 4
  store i32 1, ptr %7, align 4
  br label %36

34:                                               ; preds = %26
  br label %35

35:                                               ; preds = %34, %12
  store i32 0, ptr %2, align 4
  store i32 1, ptr %7, align 4
  br label %36

36:                                               ; preds = %35, %32, %11
  call void @llvm.lifetime.end.p0(i64 4, ptr %6) #8
  call void @llvm.lifetime.end.p0(i64 4, ptr %5) #8
  call void @llvm.lifetime.end.p0(i64 4, ptr %4) #8
  %37 = load i32, ptr %2, align 4
  ret i32 %37
}