; Function Attrs: mustprogress uwtable
define noundef i32 @_Z14tMPI_Comm_freePP10tmpi_comm_(ptr noundef readonly captures(none) %0) local_unnamed_addr #1 {
  %2 = alloca i32, align 4
  %3 = load ptr, ptr %0, align 8, !tbaa !35
  %.not = icmp eq ptr %3, null
  br i1 %.not, label %14, label %4

4:                                                ; preds = %1
  %5 = load i32, ptr %3, align 8, !tbaa !3
  %6 = getelementptr inbounds nuw i8, ptr %3, i64 472
  call void @llvm.lifetime.start.p0(i64 4, ptr nonnull %2)
  store volatile i32 1, ptr %2, align 4, !tbaa !28
  %.0..0..0..0..0..0..i = load volatile i32, ptr %2, align 4, !tbaa !28
  %7 = atomicrmw add ptr %6, i32 %.0..0..0..0..0..0..i seq_cst, align 4
  call void @llvm.lifetime.end.p0(i64 4, ptr nonnull %2)
  %8 = add nsw i32 %7, 1
  %9 = icmp eq i32 %8, %5
  br i1 %9, label %10, label %13

10:                                               ; preds = %4
  %11 = load ptr, ptr %0, align 8, !tbaa !35
  %12 = tail call noundef i32 @_Z17tMPI_Comm_destroyP10tmpi_comm_i(ptr noundef %11, i32 noundef 1)
  %.not10 = icmp eq i32 %12, 0
  br i1 %.not10, label %13, label %14

13:                                               ; preds = %10, %4
  br label %14

14:                                               ; preds = %10, %1, %13
  %.0 = phi i32 [ 0, %13 ], [ 0, %1 ], [ %12, %10 ]
  ret i32 %.0
}